target datalayout = "e-m:e-p270:32:32-p271:32:32-p272:64:64-i64:64-i128:128-f80:128-n8:16:32:64-S128"
target triple = "x86_64-pc-linux-gnu"

%class.Register = type { i32 }
%class.StubCodeMark = type { ptr, ptr }
%class.RelocationHolder = type { [40 x i8] }
%class.AddressLiteral = type { %class.RelocationHolder, i8, ptr }
%class.StubCodeGenerator = type { ptr, i8, ptr }
%class.RuntimeAddress = type { %class.AddressLiteral }
%class.CodeSection = type { ptr, ptr, ptr, ptr, ptr, ptr, ptr, ptr, i8, i8, i32, i8, ptr }
%class.AbstractAssembler = type { ptr, ptr, ptr }

@.str = private unnamed_addr constant [13 x i8] c"StubRoutines\00", align 1
@_ZL3rsp = internal constant %class.Register { i32 4 }, align 4
@_ZL7c_rarg0 = internal constant %class.Register { i32 7 }, align 4
@_ZL3rax = internal constant %class.Register zeroinitializer, align 4
@.str.6 = private unnamed_addr constant [15 x i8] c"broken oop rax\00", align 1
@.str.7 = private unnamed_addr constant [45 x i8] c"src/hotspot/cpu/x86/stubGenerator_x86_64.cpp\00", align 1
@.str.58 = private unnamed_addr constant [30 x i8] c"upcall stub exception handler\00", align 1
@.str.126 = private unnamed_addr constant [22 x i8] c"should not reach here\00", align 1

; Function Attrs: mustprogress nounwind uwtable
define linkonce_odr hidden noundef ptr @_ZNK16RelocationHolder5relocEv(ptr noundef nonnull align 8 dereferenceable(40) %0) #1 comdat align 2 {
  %2 = alloca ptr, align 8
  store ptr %0, ptr %2, align 8
  %3 = load ptr, ptr %2, align 8
  %4 = getelementptr inbounds %class.RelocationHolder, ptr %3, i32 0, i32 0
  %5 = getelementptr inbounds [40 x i8], ptr %4, i64 0, i64 0
  ret ptr %5
}

; Function Attrs: mustprogress nounwind uwtable
define linkonce_odr hidden void @_ZN16RelocationHolderC2ERKS_(ptr noundef nonnull align 8 dereferenceable(40) %0, ptr noundef nonnull align 8 dereferenceable(40) %1) unnamed_addr #1 comdat align 2 {
  %3 = alloca ptr, align 8
  %4 = alloca ptr, align 8
  store ptr %0, ptr %3, align 8
  store ptr %1, ptr %4, align 8
  %5 = load ptr, ptr %3, align 8
  %6 = load ptr, ptr %4, align 8
  %7 = call noundef ptr @_ZNK16RelocationHolder5relocEv(ptr noundef nonnull align 8 dereferenceable(40) %6)
  %8 = load ptr, ptr %7, align 8
  %9 = getelementptr inbounds ptr, ptr %8, i64 2
  %10 = load ptr, ptr %9, align 8
  call void %10(ptr noundef nonnull align 8 dereferenceable(20) %7, ptr noundef nonnull align 8 dereferenceable(40) %5)
  ret void
}

; Function Attrs: mustprogress nounwind uwtable
define linkonce_odr hidden noundef ptr @_ZNK11CodeSection3endEv(ptr noundef nonnull align 8 dereferenceable(88) %0) #1 comdat align 2 {
  %2 = alloca ptr, align 8
  store ptr %0, ptr %2, align 8
  %3 = load ptr, ptr %2, align 8
  %4 = getelementptr inbounds %class.CodeSection, ptr %3, i32 0, i32 2
  %5 = load ptr, ptr %4, align 8
  ret ptr %5
}

; Function Attrs: mustprogress nounwind uwtable
define linkonce_odr hidden noundef ptr @_ZNK17AbstractAssembler12code_sectionEv(ptr noundef nonnull align 8 dereferenceable(24) %0) #1 comdat align 2 {
  %2 = alloca ptr, align 8
  store ptr %0, ptr %2, align 8
  %3 = load ptr, ptr %2, align 8
  %4 = getelementptr inbounds %class.AbstractAssembler, ptr %3, i32 0, i32 1
  %5 = load ptr, ptr %4, align 8
  ret ptr %5
}

; Function Attrs: mustprogress nounwind uwtable
define linkonce_odr hidden void @_ZN14MacroAssembler21should_not_reach_hereEv(ptr noundef nonnull align 8 dereferenceable(40) %0) #1 comdat align 2 {
  %2 = alloca ptr, align 8
  store ptr %0, ptr %2, align 8
  %3 = load ptr, ptr %2, align 8
  call void @_ZN14MacroAssembler4stopEPKc(ptr noundef nonnull align 8 dereferenceable(40) %3, ptr noundef @.str.126)
  ret void
}

; Function Attrs: mustprogress nounwind uwtable
define linkonce_odr hidden void @_ZN14AddressLiteralC2EOS_(ptr noundef nonnull align 8 dereferenceable(56) %0, ptr noundef nonnull align 8 dereferenceable(56) %1) unnamed_addr #1 comdat align 2 {
  %3 = alloca ptr, align 8
  %4 = alloca ptr, align 8
  store ptr %0, ptr %3, align 8
  store ptr %1, ptr %4, align 8
  %5 = load ptr, ptr %3, align 8
  %6 = getelementptr inbounds %class.AddressLiteral, ptr %5, i32 0, i32 0
  %7 = load ptr, ptr %4, align 8
  %8 = getelementptr inbounds %class.AddressLiteral, ptr %7, i32 0, i32 0
  call void @_ZN16RelocationHolderC2ERKS_(ptr noundef nonnull align 8 dereferenceable(40) %6, ptr noundef nonnull align 8 dereferenceable(40) %8)
  %9 = getelementptr inbounds %class.AddressLiteral, ptr %5, i32 0, i32 1
  %10 = load ptr, ptr %4, align 8
  %11 = getelementptr inbounds %class.AddressLiteral, ptr %10, i32 0, i32 1
  call void @llvm.memcpy.p0.p0.i64(ptr align 8 %9, ptr align 8 %11, i64 16, i1 false)
  ret void
}

; Function Attrs: mustprogress nounwind uwtable
define linkonce_odr hidden void @_ZN14RuntimeAddressC2EPh(ptr noundef nonnull align 8 dereferenceable(56) %0, ptr noundef %1) unnamed_addr #1 comdat align 2 {
  %3 = alloca ptr, align 8
  %4 = alloca ptr, align 8
  store ptr %0, ptr %3, align 8
  store ptr %1, ptr %4, align 8
  %5 = load ptr, ptr %3, align 8
  %6 = load ptr, ptr %4, align 8
  call void @_ZN14AddressLiteralC2EPhN9relocInfo9relocTypeE(ptr noundef nonnull align 8 dereferenceable(56) %5, ptr noundef %6, i32 noundef 6)
  ret void
}

; Function Attrs: mustprogress nounwind uwtable
define linkonce_odr hidden void @_ZN14MacroAssembler19_verify_oop_checkedE8RegisterPKcS2_i(ptr noundef nonnull align 8 dereferenceable(40) %0, i32 %1, ptr noundef %2, ptr noundef %3, i32 noundef %4) #1 comdat align 2 {
  %6 = alloca %class.Register, align 4
  %7 = alloca ptr, align 8
  %8 = alloca ptr, align 8
  %9 = alloca ptr, align 8
  %10 = alloca i32, align 4
  %11 = getelementptr inbounds %class.Register, ptr %6, i32 0, i32 0
  store i32 %1, ptr %11, align 4
  store ptr %0, ptr %7, align 8
  store ptr %2, ptr %8, align 8
  store ptr %3, ptr %9, align 8
  store i32 %4, ptr %10, align 4
  ret void
}

; Function Attrs: mustprogress nounwind uwtable
define linkonce_odr hidden noundef ptr @_ZNK17AbstractAssembler2pcEv(ptr noundef nonnull align 8 dereferenceable(24) %0) #1 comdat align 2 {
  %2 = alloca ptr, align 8
  store ptr %0, ptr %2, align 8
  %3 = load ptr, ptr %2, align 8
  %4 = call noundef ptr @_ZNK17AbstractAssembler12code_sectionEv(ptr noundef nonnull align 8 dereferenceable(24) %3)
  %5 = call noundef ptr @_ZNK11CodeSection3endEv(ptr noundef nonnull align 8 dereferenceable(88) %4)
  ret ptr %5
}

; Function Attrs: mustprogress nounwind uwtable
define hidden noundef ptr @_ZN13StubGenerator38generate_upcall_stub_exception_handlerEv(ptr noundef nonnull align 8 dereferenceable(24) %0) #1 align 2 {
  %2 = alloca ptr, align 8
  %3 = alloca %class.StubCodeMark, align 8
  %4 = alloca ptr, align 8
  %5 = alloca %class.Register, align 4
  %6 = alloca %class.Register, align 4
  %7 = alloca %class.Register, align 4
  %8 = alloca %class.Register, align 4
  %9 = alloca %class.Register, align 4
  %10 = alloca %class.AddressLiteral, align 8
  %11 = alloca %class.RuntimeAddress, align 8
  %12 = alloca %class.Register, align 4
  store ptr %0, ptr %2, align 8
  %13 = load ptr, ptr %2, align 8
  call void @_ZN12StubCodeMarkC1EP17StubCodeGeneratorPKcS3_(ptr noundef nonnull align 8 dereferenceable(16) %3, ptr noundef %13, ptr noundef @.str, ptr noundef @.str.58)
  %14 = getelementptr inbounds %class.StubCodeGenerator, ptr %13, i32 0, i32 2
  %15 = load ptr, ptr %14, align 8
  %16 = call noundef ptr @_ZNK17AbstractAssembler2pcEv(ptr noundef nonnull align 8 dereferenceable(24) %15)
  store ptr %16, ptr %4, align 8
  %17 = getelementptr inbounds %class.StubCodeGenerator, ptr %13, i32 0, i32 2
  %18 = load ptr, ptr %17, align 8
  call void @llvm.memcpy.p0.p0.i64(ptr align 4 %5, ptr align 4 @_ZL3rax, i64 4, i1 false)
  %19 = getelementptr inbounds %class.Register, ptr %5, i32 0, i32 0
  %20 = load i32, ptr %19, align 4
  call void @_ZN14MacroAssembler19_verify_oop_checkedE8RegisterPKcS2_i(ptr noundef nonnull align 8 dereferenceable(40) %18, i32 %20, ptr noundef @.str.6, ptr noundef @.str.7, i32 noundef 3980)
  %21 = getelementptr inbounds %class.StubCodeGenerator, ptr %13, i32 0, i32 2
  %22 = load ptr, ptr %21, align 8
  call void @_ZN9Assembler10vzeroupperEv(ptr noundef nonnull align 8 dereferenceable(40) %22)
  %23 = getelementptr inbounds %class.StubCodeGenerator, ptr %13, i32 0, i32 2
  %24 = load ptr, ptr %23, align 8
  call void @llvm.memcpy.p0.p0.i64(ptr align 4 %6, ptr align 4 @_ZL7c_rarg0, i64 4, i1 false)
  call void @llvm.memcpy.p0.p0.i64(ptr align 4 %7, ptr align 4 @_ZL3rax, i64 4, i1 false)
  %25 = getelementptr inbounds %class.Register, ptr %6, i32 0, i32 0
  %26 = load i32, ptr %25, align 4
  %27 = getelementptr inbounds %class.Register, ptr %7, i32 0, i32 0
  %28 = load i32, ptr %27, align 4
  call void @_ZN9Assembler3movE8RegisterS0_(ptr noundef nonnull align 8 dereferenceable(40) %24, i32 %26, i32 %28)
  %29 = getelementptr inbounds %class.StubCodeGenerator, ptr %13, i32 0, i32 2
  %30 = load ptr, ptr %29, align 8
  call void @llvm.memcpy.p0.p0.i64(ptr align 4 %8, ptr align 4 @_ZL3rsp, i64 4, i1 false)
  %31 = getelementptr inbounds %class.Register, ptr %8, i32 0, i32 0
  %32 = load i32, ptr %31, align 4
  call void @_ZN14MacroAssembler6andptrE8Registeri(ptr noundef nonnull align 8 dereferenceable(40) %30, i32 %32, i32 noundef -16)
  %33 = getelementptr inbounds %class.StubCodeGenerator, ptr %13, i32 0, i32 2
  %34 = load ptr, ptr %33, align 8
  call void @llvm.memcpy.p0.p0.i64(ptr align 4 %9, ptr align 4 @_ZL3rsp, i64 4, i1 false)
  %35 = getelementptr inbounds %class.Register, ptr %9, i32 0, i32 0
  %36 = load i32, ptr %35, align 4
  call void @_ZN14MacroAssembler6subptrE8Registeri(ptr noundef nonnull align 8 dereferenceable(40) %34, i32 %36, i32 noundef 0)
  %37 = getelementptr inbounds %class.StubCodeGenerator, ptr %13, i32 0, i32 2
  %38 = load ptr, ptr %37, align 8
  call void @_ZN14RuntimeAddressC2EPh(ptr noundef nonnull align 8 dereferenceable(56) %11, ptr noundef @_ZN12UpcallLinker25handle_uncaught_exceptionEP7oopDesc)
  call void @_ZN14AddressLiteralC2EOS_(ptr noundef nonnull align 8 dereferenceable(56) %10, ptr noundef nonnull align 8 dereferenceable(56) %11)
  call void @llvm.memcpy.p0.p0.i64(ptr align 4 %12, ptr align 4 @_ZL3rax, i64 4, i1 false)
  %39 = getelementptr inbounds %class.Register, ptr %12, i32 0, i32 0
  %40 = load i32, ptr %39, align 4
  call void @_ZN14MacroAssembler4callE14AddressLiteral8Register(ptr noundef nonnull align 8 dereferenceable(40) %38, ptr noundef %10, i32 %40)
  %41 = getelementptr inbounds %class.StubCodeGenerator, ptr %13, i32 0, i32 2
  %42 = load ptr, ptr %41, align 8
  call void @_ZN14MacroAssembler21should_not_reach_hereEv(ptr noundef nonnull align 8 dereferenceable(40) %42)
  %43 = load ptr, ptr %4, align 8
  call void @_ZN12StubCodeMarkD1Ev(ptr noundef nonnull align 8 dereferenceable(16) %3) #7
  ret ptr %43
}